; ModuleID = '22/919.c'
source_filename = "22/919.c"
target datalayout = "e-m:e-p270:32:32-p271:32:32-p272:64:64-i64:64-f80:128-n8:16:32:64-S128"
target triple = "x86_64-pc-linux-gnu"

@.str = private unnamed_addr constant [5 x i8] c"%d%c\00", align 1
@.str.1 = private unnamed_addr constant [3 x i8] c"No\00", align 1
@.str.2 = private unnamed_addr constant [3 x i8] c"%d\00", align 1

; Function Attrs: noinline nounwind uwtable
define dso_local i32 @main() #0 {
  %1 = alloca i32, align 4
  %2 = alloca i8, align 1
  %3 = alloca [300 x i32], align 16
  %4 = alloca i32, align 4
  %5 = alloca i32, align 4
  %6 = alloca i32, align 4
  %7 = alloca i32, align 4
  %8 = alloca i32, align 4
  store i32 0, i32* %1, align 4
  store i32 0, i32* %4, align 4
  br label %9

9:                                                ; preds = %18, %0
  %10 = load i8, i8* %2, align 1
  %11 = sext i8 %10 to i32
  %12 = icmp ne i32 %11, 10
  br i1 %12, label %13, label %21

13:                                               ; preds = %9
  %14 = load i32, i32* %4, align 4
  %15 = sext i32 %14 to i64
  %16 = getelementptr inbounds [300 x i32], [300 x i32]* %3, i64 0, i64 %15
  %17 = call i32 (i8*, ...) @__isoc99_scanf(i8* getelementptr inbounds ([5 x i8], [5 x i8]* @.str, i64 0, i64 0), i32* %16, i8* %2)
  br label %18

18:                                               ; preds = %13
  %19 = load i32, i32* %4, align 4
  %20 = add nsw i32 %19, 1
  store i32 %20, i32* %4, align 4
  br label %9

21:                                               ; preds = %9
  %22 = load i32, i32* %4, align 4
  %23 = sub nsw i32 %22, 1
  store i32 %23, i32* %7, align 4
  br label %24

24:                                               ; preds = %66, %21
  %25 = load i32, i32* %7, align 4
  %26 = icmp sgt i32 %25, 0
  br i1 %26, label %27, label %69

27:                                               ; preds = %24
  store i32 0, i32* %6, align 4
  br label %28

28:                                               ; preds = %62, %27
  %29 = load i32, i32* %6, align 4
  %30 = load i32, i32* %7, align 4
  %31 = icmp slt i32 %29, %30
  br i1 %31, label %32, label %65

32:                                               ; preds = %28
  %33 = load i32, i32* %6, align 4
  %34 = sext i32 %33 to i64
  %35 = getelementptr inbounds [300 x i32], [300 x i32]* %3, i64 0, i64 %34
  %36 = load i32, i32* %35, align 4
  %37 = load i32, i32* %6, align 4
  %38 = add nsw i32 %37, 1
  %39 = sext i32 %38 to i64
  %40 = getelementptr inbounds [300 x i32], [300 x i32]* %3, i64 0, i64 %39
  %41 = load i32, i32* %40, align 4
  %42 = icmp sgt i32 %36, %41
  br i1 %42, label %43, label %61

43:                                               ; preds = %32
  %44 = load i32, i32* %6, align 4
  %45 = sext i32 %44 to i64
  %46 = getelementptr inbounds [300 x i32], [300 x i32]* %3, i64 0, i64 %45
  %47 = load i32, i32* %46, align 4
  store i32 %47, i32* %5, align 4
  %48 = load i32, i32* %6, align 4
  %49 = add nsw i32 %48, 1
  %50 = sext i32 %49 to i64
  %51 = getelementptr inbounds [300 x i32], [300 x i32]* %3, i64 0, i64 %50
  %52 = load i32, i32* %51, align 4
  %53 = load i32, i32* %6, align 4
  %54 = sext i32 %53 to i64
  %55 = getelementptr inbounds [300 x i32], [300 x i32]* %3, i64 0, i64 %54
  store i32 %52, i32* %55, align 4
  %56 = load i32, i32* %5, align 4
  %57 = load i32, i32* %6, align 4
  %58 = add nsw i32 %57, 1
  %59 = sext i32 %58 to i64
  %60 = getelementptr inbounds [300 x i32], [300 x i32]* %3, i64 0, i64 %59
  store i32 %56, i32* %60, align 4
  br label %61

61:                                               ; preds = %43, %32
  br label %62

62:                                               ; preds = %61
  %63 = load i32, i32* %6, align 4
  %64 = add nsw i32 %63, 1
  store i32 %64, i32* %6, align 4
  br label %28

65:                                               ; preds = %28
  br label %66

66:                                               ; preds = %65
  %67 = load i32, i32* %7, align 4
  %68 = add nsw i32 %67, -1
  store i32 %68, i32* %7, align 4
  br label %24

69:                                               ; preds = %24
  %70 = load i32, i32* %4, align 4
  %71 = icmp eq i32 %70, 1
  br i1 %71, label %81, label %72

72:                                               ; preds = %69
  %73 = getelementptr inbounds [300 x i32], [300 x i32]* %3, i64 0, i64 0
  %74 = load i32, i32* %73, align 16
  %75 = load i32, i32* %4, align 4
  %76 = sub nsw i32 %75, 1
  %77 = sext i32 %76 to i64
  %78 = getelementptr inbounds [300 x i32], [300 x i32]* %3, i64 0, i64 %77
  %79 = load i32, i32* %78, align 4
  %80 = icmp eq i32 %74, %79
  br i1 %80, label %81, label %83

81:                                               ; preds = %72, %69
  %82 = call i32 (i8*, ...) @printf(i8* getelementptr inbounds ([3 x i8], [3 x i8]* @.str.1, i64 0, i64 0))
  br label %108

83:                                               ; preds = %72
  %84 = load i32, i32* %4, align 4
  %85 = sub nsw i32 %84, 1
  store i32 %85, i32* %8, align 4
  br label %86

86:                                               ; preds = %98, %83
  %87 = load i32, i32* %8, align 4
  %88 = sext i32 %87 to i64
  %89 = getelementptr inbounds [300 x i32], [300 x i32]* %3, i64 0, i64 %88
  %90 = load i32, i32* %89, align 4
  %91 = load i32, i32* %8, align 4
  %92 = sub nsw i32 %91, 1
  %93 = sext i32 %92 to i64
  %94 = getelementptr inbounds [300 x i32], [300 x i32]* %3, i64 0, i64 %93
  %95 = load i32, i32* %94, align 4
  %96 = icmp eq i32 %90, %95
  br i1 %96, label %97, label %101

97:                                               ; preds = %86
  br label %98

98:                                               ; preds = %97
  %99 = load i32, i32* %8, align 4
  %100 = sub nsw i32 %99, 1
  store i32 %100, i32* %8, align 4
  br label %86

101:                                              ; preds = %86
  %102 = load i32, i32* %8, align 4
  %103 = sub nsw i32 %102, 1
  %104 = sext i32 %103 to i64
  %105 = getelementptr inbounds [300 x i32], [300 x i32]* %3, i64 0, i64 %104
  %106 = load i32, i32* %105, align 4
  %107 = call i32 (i8*, ...) @printf(i8* getelementptr inbounds ([3 x i8], [3 x i8]* @.str.2, i64 0, i64 0), i32 %106)
  br label %108

108:                                              ; preds = %101, %81
  ret i32 0
}

declare dso_local i32 @__isoc99_scanf(i8*, ...) #1

declare dso_local i32 @printf(i8*, ...) #1


!llvm.module.flags = !{!0}
!llvm.ident = !{!1}

!0 = !{i32 1, !"wchar_size", i32 4}
!1 = !{!"clang version 10.0.0-4ubuntu1 "}
